target datalayout = "e-m:e-p270:32:32-p271:32:32-p272:64:64-i64:64-i128:128-f80:128-n8:16:32:64-S128"
target triple = "x86_64-unknown-linux-gnu"

%"class.std::__cxx11::basic_string" = type { %"struct.std::__cxx11::basic_string<char>::_Alloc_hider", i64, %union.anon }
%"struct.std::__cxx11::basic_string<char>::_Alloc_hider" = type { ptr }
%union.anon = type { i64, [8 x i8] }
%"class.testing::(anonymous namespace)::BetweenCardinalityImpl" = type { %"class.testing::CardinalityInterface", i32, i32 }
%"class.testing::CardinalityInterface" = type { ptr }

@.str = private unnamed_addr constant [8 x i8] c"called \00", align 1
@.str.1 = private unnamed_addr constant [13 x i8] c"never called\00", align 1
@.str.43 = private unnamed_addr constant [6 x i8] c" and \00", align 1
@.str.73 = private unnamed_addr constant [7 x i8] c" times\00", align 1
@.str.81 = private unnamed_addr constant [27 x i8] c"called any number of times\00", align 1
@.str.82 = private unnamed_addr constant [16 x i8] c"called at most \00", align 1
@.str.83 = private unnamed_addr constant [17 x i8] c"called at least \00", align 1
@.str.84 = private unnamed_addr constant [16 x i8] c"called between \00", align 1

; Function Attrs: mustprogress uwtable
define internal void @_ZNK7testing12_GLOBAL__N_122BetweenCardinalityImpl10DescribeToEPSo(ptr noundef nonnull align 8 dereferenceable(16) %this, ptr noundef %os) unnamed_addr #4 align 2 personality ptr @__gxx_personality_v0 {
entry:
  %this.addr = alloca ptr, align 8
  %os.addr = alloca ptr, align 8
  %ref.tmp = alloca %"class.std::__cxx11::basic_string", align 8
  %exn.slot = alloca ptr, align 8
  %ehselector.slot = alloca i32, align 4
  %ref.tmp19 = alloca %"class.std::__cxx11::basic_string", align 8
  %ref.tmp29 = alloca %"class.std::__cxx11::basic_string", align 8
  store ptr %this, ptr %this.addr, align 8
  store ptr %os, ptr %os.addr, align 8
  %this1 = load ptr, ptr %this.addr, align 8
  %min_ = getelementptr inbounds %"class.testing::(anonymous namespace)::BetweenCardinalityImpl", ptr %this1, i32 0, i32 1
  %0 = load i32, ptr %min_, align 8
  %cmp = icmp eq i32 %0, 0
  br i1 %cmp, label %if.then, label %if.else13

if.then:                                          ; preds = %entry
  %max_ = getelementptr inbounds %"class.testing::(anonymous namespace)::BetweenCardinalityImpl", ptr %this1, i32 0, i32 2
  %1 = load i32, ptr %max_, align 4
  %cmp2 = icmp eq i32 %1, 0
  br i1 %cmp2, label %if.then3, label %if.else

if.then3:                                         ; preds = %if.then
  %2 = load ptr, ptr %os.addr, align 8
  %call = call noundef nonnull align 8 dereferenceable(8) ptr @_ZStlsISt11char_traitsIcEERSt13basic_ostreamIcT_ES5_PKc(ptr noundef nonnull align 8 dereferenceable(8) %2, ptr noundef @.str.1)
  br label %if.end12

if.else:                                          ; preds = %if.then
  %max_4 = getelementptr inbounds %"class.testing::(anonymous namespace)::BetweenCardinalityImpl", ptr %this1, i32 0, i32 2
  %3 = load i32, ptr %max_4, align 4
  %cmp5 = icmp eq i32 %3, 2147483647
  br i1 %cmp5, label %if.then6, label %if.else8

if.then6:                                         ; preds = %if.else
  %4 = load ptr, ptr %os.addr, align 8
  %call7 = call noundef nonnull align 8 dereferenceable(8) ptr @_ZStlsISt11char_traitsIcEERSt13basic_ostreamIcT_ES5_PKc(ptr noundef nonnull align 8 dereferenceable(8) %4, ptr noundef @.str.81)
  br label %if.end

if.else8:                                         ; preds = %if.else
  %5 = load ptr, ptr %os.addr, align 8
  %call9 = call noundef nonnull align 8 dereferenceable(8) ptr @_ZStlsISt11char_traitsIcEERSt13basic_ostreamIcT_ES5_PKc(ptr noundef nonnull align 8 dereferenceable(8) %5, ptr noundef @.str.82)
  %max_10 = getelementptr inbounds %"class.testing::(anonymous namespace)::BetweenCardinalityImpl", ptr %this1, i32 0, i32 2
  %6 = load i32, ptr %max_10, align 4
  call void @_ZN7testing12_GLOBAL__N_111FormatTimesB5cxx11Ei(ptr sret(%"class.std::__cxx11::basic_string") align 8 %ref.tmp, i32 noundef %6)
  %call11 = invoke noundef nonnull align 8 dereferenceable(8) ptr @_ZStlsIcSt11char_traitsIcESaIcEERSt13basic_ostreamIT_T0_ES7_RKNSt7__cxx1112basic_stringIS4_S5_T1_EE(ptr noundef nonnull align 8 dereferenceable(8) %call9, ptr noundef nonnull align 8 dereferenceable(32) %ref.tmp)
          to label %invoke.cont unwind label %lpad

invoke.cont:                                      ; preds = %if.else8
  call void @_ZNSt7__cxx1112basic_stringIcSt11char_traitsIcESaIcEED1Ev(ptr noundef nonnull align 8 dereferenceable(32) %ref.tmp) #3
  br label %if.end

lpad:                                             ; preds = %if.else8
  %7 = landingpad { ptr, i32 }
          cleanup
  %8 = extractvalue { ptr, i32 } %7, 0
  store ptr %8, ptr %exn.slot, align 8
  %9 = extractvalue { ptr, i32 } %7, 1
  store i32 %9, ptr %ehselector.slot, align 4
  call void @_ZNSt7__cxx1112basic_stringIcSt11char_traitsIcESaIcEED1Ev(ptr noundef nonnull align 8 dereferenceable(32) %ref.tmp) #3
  br label %eh.resume

if.end:                                           ; preds = %invoke.cont, %if.then6
  br label %if.end12

if.end12:                                         ; preds = %if.end, %if.then3
  br label %if.end44

if.else13:                                        ; preds = %entry
  %min_14 = getelementptr inbounds %"class.testing::(anonymous namespace)::BetweenCardinalityImpl", ptr %this1, i32 0, i32 1
  %10 = load i32, ptr %min_14, align 8
  %max_15 = getelementptr inbounds %"class.testing::(anonymous namespace)::BetweenCardinalityImpl", ptr %this1, i32 0, i32 2
  %11 = load i32, ptr %max_15, align 4
  %cmp16 = icmp eq i32 %10, %11
  br i1 %cmp16, label %if.then17, label %if.else24

if.then17:                                        ; preds = %if.else13
  %12 = load ptr, ptr %os.addr, align 8
  %call18 = call noundef nonnull align 8 dereferenceable(8) ptr @_ZStlsISt11char_traitsIcEERSt13basic_ostreamIcT_ES5_PKc(ptr noundef nonnull align 8 dereferenceable(8) %12, ptr noundef @.str)
  %min_20 = getelementptr inbounds %"class.testing::(anonymous namespace)::BetweenCardinalityImpl", ptr %this1, i32 0, i32 1
  %13 = load i32, ptr %min_20, align 8
  call void @_ZN7testing12_GLOBAL__N_111FormatTimesB5cxx11Ei(ptr sret(%"class.std::__cxx11::basic_string") align 8 %ref.tmp19, i32 noundef %13)
  %call23 = invoke noundef nonnull align 8 dereferenceable(8) ptr @_ZStlsIcSt11char_traitsIcESaIcEERSt13basic_ostreamIT_T0_ES7_RKNSt7__cxx1112basic_stringIS4_S5_T1_EE(ptr noundef nonnull align 8 dereferenceable(8) %call18, ptr noundef nonnull align 8 dereferenceable(32) %ref.tmp19)
          to label %invoke.cont22 unwind label %lpad21

invoke.cont22:                                    ; preds = %if.then17
  call void @_ZNSt7__cxx1112basic_stringIcSt11char_traitsIcESaIcEED1Ev(ptr noundef nonnull align 8 dereferenceable(32) %ref.tmp19) #3
  br label %if.end43

lpad21:                                           ; preds = %if.then17
  %14 = landingpad { ptr, i32 }
          cleanup
  %15 = extractvalue { ptr, i32 } %14, 0
  store ptr %15, ptr %exn.slot, align 8
  %16 = extractvalue { ptr, i32 } %14, 1
  store i32 %16, ptr %ehselector.slot, align 4
  call void @_ZNSt7__cxx1112basic_stringIcSt11char_traitsIcESaIcEED1Ev(ptr noundef nonnull align 8 dereferenceable(32) %ref.tmp19) #3
  br label %eh.resume

if.else24:                                        ; preds = %if.else13
  %max_25 = getelementptr inbounds %"class.testing::(anonymous namespace)::BetweenCardinalityImpl", ptr %this1, i32 0, i32 2
  %17 = load i32, ptr %max_25, align 4
  %cmp26 = icmp eq i32 %17, 2147483647
  br i1 %cmp26, label %if.then27, label %if.else34

if.then27:                                        ; preds = %if.else24
  %18 = load ptr, ptr %os.addr, align 8
  %call28 = call noundef nonnull align 8 dereferenceable(8) ptr @_ZStlsISt11char_traitsIcEERSt13basic_ostreamIcT_ES5_PKc(ptr noundef nonnull align 8 dereferenceable(8) %18, ptr noundef @.str.83)
  %min_30 = getelementptr inbounds %"class.testing::(anonymous namespace)::BetweenCardinalityImpl", ptr %this1, i32 0, i32 1
  %19 = load i32, ptr %min_30, align 8
  call void @_ZN7testing12_GLOBAL__N_111FormatTimesB5cxx11Ei(ptr sret(%"class.std::__cxx11::basic_string") align 8 %ref.tmp29, i32 noundef %19)
  %call33 = invoke noundef nonnull align 8 dereferenceable(8) ptr @_ZStlsIcSt11char_traitsIcESaIcEERSt13basic_ostreamIT_T0_ES7_RKNSt7__cxx1112basic_stringIS4_S5_T1_EE(ptr noundef nonnull align 8 dereferenceable(8) %call28, ptr noundef nonnull align 8 dereferenceable(32) %ref.tmp29)
          to label %invoke.cont32 unwind label %lpad31

invoke.cont32:                                    ; preds = %if.then27
  call void @_ZNSt7__cxx1112basic_stringIcSt11char_traitsIcESaIcEED1Ev(ptr noundef nonnull align 8 dereferenceable(32) %ref.tmp29) #3
  br label %if.end42

lpad31:                                           ; preds = %if.then27
  %20 = landingpad { ptr, i32 }
          cleanup
  %21 = extractvalue { ptr, i32 } %20, 0
  store ptr %21, ptr %exn.slot, align 8
  %22 = extractvalue { ptr, i32 } %20, 1
  store i32 %22, ptr %ehselector.slot, align 4
  call void @_ZNSt7__cxx1112basic_stringIcSt11char_traitsIcESaIcEED1Ev(ptr noundef nonnull align 8 dereferenceable(32) %ref.tmp29) #3
  br label %eh.resume

if.else34:                                        ; preds = %if.else24
  %23 = load ptr, ptr %os.addr, align 8
  %call35 = call noundef nonnull align 8 dereferenceable(8) ptr @_ZStlsISt11char_traitsIcEERSt13basic_ostreamIcT_ES5_PKc(ptr noundef nonnull align 8 dereferenceable(8) %23, ptr noundef @.str.84)
  %min_36 = getelementptr inbounds %"class.testing::(anonymous namespace)::BetweenCardinalityImpl", ptr %this1, i32 0, i32 1
  %24 = load i32, ptr %min_36, align 8
  %call37 = call noundef nonnull align 8 dereferenceable(8) ptr @_ZNSolsEi(ptr noundef nonnull align 8 dereferenceable(8) %call35, i32 noundef %24)
  %call38 = call noundef nonnull align 8 dereferenceable(8) ptr @_ZStlsISt11char_traitsIcEERSt13basic_ostreamIcT_ES5_PKc(ptr noundef nonnull align 8 dereferenceable(8) %call37, ptr noundef @.str.43)
  %max_39 = getelementptr inbounds %"class.testing::(anonymous namespace)::BetweenCardinalityImpl", ptr %this1, i32 0, i32 2
  %25 = load i32, ptr %max_39, align 4
  %call40 = call noundef nonnull align 8 dereferenceable(8) ptr @_ZNSolsEi(ptr noundef nonnull align 8 dereferenceable(8) %call38, i32 noundef %25)
  %call41 = call noundef nonnull align 8 dereferenceable(8) ptr @_ZStlsISt11char_traitsIcEERSt13basic_ostreamIcT_ES5_PKc(ptr noundef nonnull align 8 dereferenceable(8) %call40, ptr noundef @.str.73)
  br label %if.end42

if.end42:                                         ; preds = %if.else34, %invoke.cont32
  br label %if.end43

if.end43:                                         ; preds = %if.end42, %invoke.cont22
  br label %if.end44

if.end44:                                         ; preds = %if.end43, %if.end12
  ret void

eh.resume:                                        ; preds = %lpad31, %lpad21, %lpad
  %exn = load ptr, ptr %exn.slot, align 8
  %sel = load i32, ptr %ehselector.slot, align 4
  %lpad.val = insertvalue { ptr, i32 } poison, ptr %exn, 0
  %lpad.val45 = insertvalue { ptr, i32 } %lpad.val, i32 %sel, 1
  resume { ptr, i32 } %lpad.val45
}