; Function Attrs: mustprogress uwtable
define internal void @_ZNK7testing12_GLOBAL__N_122BetweenCardinalityImpl10DescribeToEPSo(ptr nocapture noundef nonnull readonly align 8 dereferenceable(16) %this, ptr noundef %os) unnamed_addr #3 align 2 personality ptr @__gxx_personality_v0 {
entry:
  %ref.tmp = alloca %"class.std::__cxx11::basic_string", align 8
  %ref.tmp19 = alloca %"class.std::__cxx11::basic_string", align 8
  %ref.tmp29 = alloca %"class.std::__cxx11::basic_string", align 8
  %min_ = getelementptr inbounds i8, ptr %this, i64 8
  %0 = load i32, ptr %min_, align 8
  %cmp = icmp eq i32 %0, 0
  %max_ = getelementptr inbounds i8, ptr %this, i64 12
  %1 = load i32, ptr %max_, align 4
  br i1 %cmp, label %if.then, label %if.else13

if.then:                                          ; preds = %entry
  switch i32 %1, label %if.else8 [
    i32 0, label %if.then3
    i32 2147483647, label %if.then6
  ]

if.then3:                                         ; preds = %if.then
  %call = tail call noundef nonnull align 8 dereferenceable(8) ptr @_ZStlsISt11char_traitsIcEERSt13basic_ostreamIcT_ES5_PKc(ptr noundef nonnull align 8 dereferenceable(8) %os, ptr noundef nonnull @.str.1)
  br label %if.end44

if.then6:                                         ; preds = %if.then
  %call7 = tail call noundef nonnull align 8 dereferenceable(8) ptr @_ZStlsISt11char_traitsIcEERSt13basic_ostreamIcT_ES5_PKc(ptr noundef nonnull align 8 dereferenceable(8) %os, ptr noundef nonnull @.str.81)
  br label %if.end44

if.else8:                                         ; preds = %if.then
  %call9 = tail call noundef nonnull align 8 dereferenceable(8) ptr @_ZStlsISt11char_traitsIcEERSt13basic_ostreamIcT_ES5_PKc(ptr noundef nonnull align 8 dereferenceable(8) %os, ptr noundef nonnull @.str.82)
  %2 = load i32, ptr %max_, align 4
  call fastcc void @_ZN7testing12_GLOBAL__N_111FormatTimesB5cxx11Ei(ptr noalias nonnull align 8 %ref.tmp, i32 noundef %2)
  %call11 = invoke noundef nonnull align 8 dereferenceable(8) ptr @_ZStlsIcSt11char_traitsIcESaIcEERSt13basic_ostreamIT_T0_ES7_RKNSt7__cxx1112basic_stringIS4_S5_T1_EE(ptr noundef nonnull align 8 dereferenceable(8) %call9, ptr noundef nonnull align 8 dereferenceable(32) %ref.tmp)
          to label %invoke.cont unwind label %lpad

invoke.cont:                                      ; preds = %if.else8
  call void @_ZNSt7__cxx1112basic_stringIcSt11char_traitsIcESaIcEED1Ev(ptr noundef nonnull align 8 dereferenceable(32) %ref.tmp) #26
  br label %if.end44

lpad:                                             ; preds = %if.else8
  %3 = landingpad { ptr, i32 }
          cleanup
  br label %eh.resume

if.else13:                                        ; preds = %entry
  %cmp16 = icmp eq i32 %0, %1
  br i1 %cmp16, label %if.then17, label %if.else24

if.then17:                                        ; preds = %if.else13
  %call18 = tail call noundef nonnull align 8 dereferenceable(8) ptr @_ZStlsISt11char_traitsIcEERSt13basic_ostreamIcT_ES5_PKc(ptr noundef nonnull align 8 dereferenceable(8) %os, ptr noundef nonnull @.str)
  %4 = load i32, ptr %min_, align 8
  call fastcc void @_ZN7testing12_GLOBAL__N_111FormatTimesB5cxx11Ei(ptr noalias nonnull align 8 %ref.tmp19, i32 noundef %4)
  %call23 = invoke noundef nonnull align 8 dereferenceable(8) ptr @_ZStlsIcSt11char_traitsIcESaIcEERSt13basic_ostreamIT_T0_ES7_RKNSt7__cxx1112basic_stringIS4_S5_T1_EE(ptr noundef nonnull align 8 dereferenceable(8) %call18, ptr noundef nonnull align 8 dereferenceable(32) %ref.tmp19)
          to label %invoke.cont22 unwind label %lpad21

invoke.cont22:                                    ; preds = %if.then17
  call void @_ZNSt7__cxx1112basic_stringIcSt11char_traitsIcESaIcEED1Ev(ptr noundef nonnull align 8 dereferenceable(32) %ref.tmp19) #26
  br label %if.end44

lpad21:                                           ; preds = %if.then17
  %5 = landingpad { ptr, i32 }
          cleanup
  br label %eh.resume

if.else24:                                        ; preds = %if.else13
  %cmp26 = icmp eq i32 %1, 2147483647
  br i1 %cmp26, label %if.then27, label %if.else34

if.then27:                                        ; preds = %if.else24
  %call28 = tail call noundef nonnull align 8 dereferenceable(8) ptr @_ZStlsISt11char_traitsIcEERSt13basic_ostreamIcT_ES5_PKc(ptr noundef nonnull align 8 dereferenceable(8) %os, ptr noundef nonnull @.str.83)
  %6 = load i32, ptr %min_, align 8
  call fastcc void @_ZN7testing12_GLOBAL__N_111FormatTimesB5cxx11Ei(ptr noalias nonnull align 8 %ref.tmp29, i32 noundef %6)
  %call33 = invoke noundef nonnull align 8 dereferenceable(8) ptr @_ZStlsIcSt11char_traitsIcESaIcEERSt13basic_ostreamIT_T0_ES7_RKNSt7__cxx1112basic_stringIS4_S5_T1_EE(ptr noundef nonnull align 8 dereferenceable(8) %call28, ptr noundef nonnull align 8 dereferenceable(32) %ref.tmp29)
          to label %invoke.cont32 unwind label %lpad31

invoke.cont32:                                    ; preds = %if.then27
  call void @_ZNSt7__cxx1112basic_stringIcSt11char_traitsIcESaIcEED1Ev(ptr noundef nonnull align 8 dereferenceable(32) %ref.tmp29) #26
  br label %if.end44

lpad31:                                           ; preds = %if.then27
  %7 = landingpad { ptr, i32 }
          cleanup
  br label %eh.resume

if.else34:                                        ; preds = %if.else24
  %call35 = tail call noundef nonnull align 8 dereferenceable(8) ptr @_ZStlsISt11char_traitsIcEERSt13basic_ostreamIcT_ES5_PKc(ptr noundef nonnull align 8 dereferenceable(8) %os, ptr noundef nonnull @.str.84)
  %8 = load i32, ptr %min_, align 8
  %call37 = tail call noundef nonnull align 8 dereferenceable(8) ptr @_ZNSolsEi(ptr noundef nonnull align 8 dereferenceable(8) %call35, i32 noundef %8)
  %call38 = tail call noundef nonnull align 8 dereferenceable(8) ptr @_ZStlsISt11char_traitsIcEERSt13basic_ostreamIcT_ES5_PKc(ptr noundef nonnull align 8 dereferenceable(8) %call37, ptr noundef nonnull @.str.43)
  %9 = load i32, ptr %max_, align 4
  %call40 = tail call noundef nonnull align 8 dereferenceable(8) ptr @_ZNSolsEi(ptr noundef nonnull align 8 dereferenceable(8) %call38, i32 noundef %9)
  %call41 = tail call noundef nonnull align 8 dereferenceable(8) ptr @_ZStlsISt11char_traitsIcEERSt13basic_ostreamIcT_ES5_PKc(ptr noundef nonnull align 8 dereferenceable(8) %call40, ptr noundef nonnull @.str.73)
  br label %if.end44

if.end44:                                         ; preds = %invoke.cont22, %if.else34, %invoke.cont32, %if.then3, %invoke.cont, %if.then6
  ret void

eh.resume:                                        ; preds = %lpad31, %lpad21, %lpad
  %ref.tmp29.sink = phi ptr [ %ref.tmp29, %lpad31 ], [ %ref.tmp19, %lpad21 ], [ %ref.tmp, %lpad ]
  %.pn = phi { ptr, i32 } [ %7, %lpad31 ], [ %5, %lpad21 ], [ %3, %lpad ]
  call void @_ZNSt7__cxx1112basic_stringIcSt11char_traitsIcESaIcEED1Ev(ptr noundef nonnull align 8 dereferenceable(32) %ref.tmp29.sink) #26
  resume { ptr, i32 } %.pn
}